; Function Attrs: mustprogress nofree nounwind uwtable
define noundef zeroext i1 @_ZN4base6IsLinkERKNS_8FilePathE(ptr noundef nonnull readonly align 8 captures(none) dereferenceable(32) %0) local_unnamed_addr #6 {
  %2 = alloca %struct.stat64, align 8
  call void @llvm.lifetime.start.p0(i64 144, ptr nonnull %2) #24
  %3 = load ptr, ptr %0, align 8, !tbaa !3
  %4 = call noundef i32 @lstat64(ptr noundef readonly %3, ptr noundef nonnull %2) #24
  %.not = icmp eq i32 %4, 0
  %5 = getelementptr inbounds nuw i8, ptr %2, i64 24
  %6 = load i32, ptr %5, align 8
  %7 = and i32 %6, 61440
  %8 = icmp eq i32 %7, 40960
  %.0 = select i1 %.not, i1 %8, i1 false
  call void @llvm.lifetime.end.p0(i64 144, ptr nonnull %2) #24
  ret i1 %.0
}